target datalayout = "e-m:e-p270:32:32-p271:32:32-p272:64:64-i64:64-i128:128-f80:128-n8:16:32:64-S128"
target triple = "x86_64-pc-linux-gnu"

@.str.9 = private unnamed_addr constant [14 x i8] c"out of bounds\00", align 1
@.str.10 = private unnamed_addr constant [22 x i8] c"string slice too long\00", align 1
@.str.11 = private unnamed_addr constant [19 x i8] c"invalid UTF-8 code\00", align 1
@utf8_decode.limits = internal constant [6 x i32] [i32 -1, i32 128, i32 2048, i32 65536, i32 2097152, i32 67108864], align 16

; Function Attrs: nounwind uwtable
define internal ptr @utf8_decode(ptr noundef %0, ptr noundef %1, i32 noundef %2) #0 {
  %4 = alloca ptr, align 8
  %5 = alloca ptr, align 8
  %6 = alloca ptr, align 8
  %7 = alloca i32, align 4
  %8 = alloca i32, align 4
  %9 = alloca i32, align 4
  %10 = alloca i32, align 4
  %11 = alloca i32, align 4
  %12 = alloca i32, align 4
  store ptr %0, ptr %5, align 8, !tbaa !9
  store ptr %1, ptr %6, align 8, !tbaa !18
  store i32 %2, ptr %7, align 4, !tbaa !16
  call void @llvm.lifetime.start.p0(i64 4, ptr %8) #4
  %13 = load ptr, ptr %5, align 8, !tbaa !9
  %14 = getelementptr inbounds i8, ptr %13, i64 0
  %15 = load i8, ptr %14, align 1, !tbaa !15
  %16 = zext i8 %15 to i32
  store i32 %16, ptr %8, align 4, !tbaa !16
  call void @llvm.lifetime.start.p0(i64 4, ptr %9) #4
  store i32 0, ptr %9, align 4, !tbaa !16
  %17 = load i32, ptr %8, align 4, !tbaa !16
  %18 = icmp ult i32 %17, 128
  br i1 %18, label %19, label %21

19:                                               ; preds = %3
  %20 = load i32, ptr %8, align 4, !tbaa !16
  store i32 %20, ptr %9, align 4, !tbaa !16
  br label %79

21:                                               ; preds = %3
  call void @llvm.lifetime.start.p0(i64 4, ptr %10) #4
  store i32 0, ptr %10, align 4, !tbaa !16
  br label %22

22:                                               ; preds = %47, %21
  %23 = load i32, ptr %8, align 4, !tbaa !16
  %24 = and i32 %23, 64
  %25 = icmp ne i32 %24, 0
  br i1 %25, label %26, label %50

26:                                               ; preds = %22
  call void @llvm.lifetime.start.p0(i64 4, ptr %11) #4
  %27 = load ptr, ptr %5, align 8, !tbaa !9
  %28 = load i32, ptr %10, align 4, !tbaa !16
  %29 = add nsw i32 %28, 1
  store i32 %29, ptr %10, align 4, !tbaa !16
  %30 = sext i32 %29 to i64
  %31 = getelementptr inbounds i8, ptr %27, i64 %30
  %32 = load i8, ptr %31, align 1, !tbaa !15
  %33 = zext i8 %32 to i32
  store i32 %33, ptr %11, align 4, !tbaa !16
  %34 = load i32, ptr %11, align 4, !tbaa !16
  %35 = and i32 %34, 192
  %36 = icmp eq i32 %35, 128
  br i1 %36, label %38, label %37

37:                                               ; preds = %26
  store ptr null, ptr %4, align 8
  store i32 1, ptr %12, align 4
  br label %44

38:                                               ; preds = %26
  %39 = load i32, ptr %9, align 4, !tbaa !16
  %40 = shl i32 %39, 6
  %41 = load i32, ptr %11, align 4, !tbaa !16
  %42 = and i32 %41, 63
  %43 = or i32 %40, %42
  store i32 %43, ptr %9, align 4, !tbaa !16
  store i32 0, ptr %12, align 4
  br label %44

44:                                               ; preds = %38, %37
  call void @llvm.lifetime.end.p0(i64 4, ptr %11) #4
  %45 = load i32, ptr %12, align 4
  switch i32 %45, label %76 [
    i32 0, label %46
  ]

46:                                               ; preds = %44
  br label %47

47:                                               ; preds = %46
  %48 = load i32, ptr %8, align 4, !tbaa !16
  %49 = shl i32 %48, 1
  store i32 %49, ptr %8, align 4, !tbaa !16
  br label %22

50:                                               ; preds = %22
  %51 = load i32, ptr %8, align 4, !tbaa !16
  %52 = and i32 %51, 127
  %53 = load i32, ptr %10, align 4, !tbaa !16
  %54 = mul nsw i32 %53, 5
  %55 = shl i32 %52, %54
  %56 = load i32, ptr %9, align 4, !tbaa !16
  %57 = or i32 %56, %55
  store i32 %57, ptr %9, align 4, !tbaa !16
  %58 = load i32, ptr %10, align 4, !tbaa !16
  %59 = icmp sgt i32 %58, 5
  br i1 %59, label %70, label %60

60:                                               ; preds = %50
  %61 = load i32, ptr %9, align 4, !tbaa !16
  %62 = icmp ugt i32 %61, 2147483647
  br i1 %62, label %70, label %63

63:                                               ; preds = %60
  %64 = load i32, ptr %9, align 4, !tbaa !16
  %65 = load i32, ptr %10, align 4, !tbaa !16
  %66 = sext i32 %65 to i64
  %67 = getelementptr inbounds [6 x i32], ptr @utf8_decode.limits, i64 0, i64 %66
  %68 = load i32, ptr %67, align 4, !tbaa !16
  %69 = icmp ult i32 %64, %68
  br i1 %69, label %70, label %71

70:                                               ; preds = %63, %60, %50
  store ptr null, ptr %4, align 8
  store i32 1, ptr %12, align 4
  br label %76

71:                                               ; preds = %63
  %72 = load i32, ptr %10, align 4, !tbaa !16
  %73 = load ptr, ptr %5, align 8, !tbaa !9
  %74 = sext i32 %72 to i64
  %75 = getelementptr inbounds i8, ptr %73, i64 %74
  store ptr %75, ptr %5, align 8, !tbaa !9
  store i32 0, ptr %12, align 4
  br label %76

76:                                               ; preds = %71, %70, %44
  call void @llvm.lifetime.end.p0(i64 4, ptr %10) #4
  %77 = load i32, ptr %12, align 4
  switch i32 %77, label %102 [
    i32 0, label %78
  ]

78:                                               ; preds = %76
  br label %79

79:                                               ; preds = %78, %19
  %80 = load i32, ptr %7, align 4, !tbaa !16
  %81 = icmp ne i32 %80, 0
  br i1 %81, label %82, label %93

82:                                               ; preds = %79
  %83 = load i32, ptr %9, align 4, !tbaa !16
  %84 = icmp ugt i32 %83, 1114111
  br i1 %84, label %91, label %85

85:                                               ; preds = %82
  %86 = load i32, ptr %9, align 4, !tbaa !16
  %87 = icmp ule i32 55296, %86
  br i1 %87, label %88, label %92

88:                                               ; preds = %85
  %89 = load i32, ptr %9, align 4, !tbaa !16
  %90 = icmp ule i32 %89, 57343
  br i1 %90, label %91, label %92

91:                                               ; preds = %88, %82
  store ptr null, ptr %4, align 8
  store i32 1, ptr %12, align 4
  br label %102

92:                                               ; preds = %88, %85
  br label %93

93:                                               ; preds = %92, %79
  %94 = load ptr, ptr %6, align 8, !tbaa !18
  %95 = icmp ne ptr %94, null
  br i1 %95, label %96, label %99

96:                                               ; preds = %93
  %97 = load i32, ptr %9, align 4, !tbaa !16
  %98 = load ptr, ptr %6, align 8, !tbaa !18
  store i32 %97, ptr %98, align 4, !tbaa !16
  br label %99

99:                                               ; preds = %96, %93
  %100 = load ptr, ptr %5, align 8, !tbaa !9
  %101 = getelementptr inbounds i8, ptr %100, i64 1
  store ptr %101, ptr %4, align 8
  store i32 1, ptr %12, align 4
  br label %102

102:                                              ; preds = %99, %91, %76
  call void @llvm.lifetime.end.p0(i64 4, ptr %9) #4
  call void @llvm.lifetime.end.p0(i64 4, ptr %8) #4
  %103 = load ptr, ptr %4, align 8
  ret ptr %103
}

; Function Attrs: nounwind uwtable
define internal i64 @u_posrelat(i64 noundef %0, i64 noundef %1) #0 {
  %3 = alloca i64, align 8
  %4 = alloca i64, align 8
  %5 = alloca i64, align 8
  store i64 %0, ptr %4, align 8, !tbaa !11
  store i64 %1, ptr %5, align 8, !tbaa !13
  %6 = load i64, ptr %4, align 8, !tbaa !11
  %7 = icmp sge i64 %6, 0
  br i1 %7, label %8, label %10

8:                                                ; preds = %2
  %9 = load i64, ptr %4, align 8, !tbaa !11
  store i64 %9, ptr %3, align 8
  br label %21

10:                                               ; preds = %2
  %11 = load i64, ptr %4, align 8, !tbaa !11
  %12 = sub i64 0, %11
  %13 = load i64, ptr %5, align 8, !tbaa !13
  %14 = icmp ugt i64 %12, %13
  br i1 %14, label %15, label %16

15:                                               ; preds = %10
  store i64 0, ptr %3, align 8
  br label %21

16:                                               ; preds = %10
  %17 = load i64, ptr %5, align 8, !tbaa !13
  %18 = load i64, ptr %4, align 8, !tbaa !11
  %19 = add nsw i64 %17, %18
  %20 = add nsw i64 %19, 1
  store i64 %20, ptr %3, align 8
  br label %21

21:                                               ; preds = %16, %15, %8
  %22 = load i64, ptr %3, align 8
  ret i64 %22
}

; Function Attrs: nounwind uwtable
define internal i32 @codepoint(ptr noundef %0) #0 {
  %2 = alloca i32, align 4
  %3 = alloca ptr, align 8
  %4 = alloca i64, align 8
  %5 = alloca ptr, align 8
  %6 = alloca i64, align 8
  %7 = alloca i64, align 8
  %8 = alloca i32, align 4
  %9 = alloca i32, align 4
  %10 = alloca ptr, align 8
  %11 = alloca i32, align 4
  %12 = alloca i32, align 4
  store ptr %0, ptr %3, align 8, !tbaa !4
  call void @llvm.lifetime.start.p0(i64 8, ptr %4) #4
  call void @llvm.lifetime.start.p0(i64 8, ptr %5) #4
  %13 = load ptr, ptr %3, align 8, !tbaa !4
  %14 = call ptr @luaL_checklstring(ptr noundef %13, i32 noundef 1, ptr noundef %4)
  store ptr %14, ptr %5, align 8, !tbaa !9
  call void @llvm.lifetime.start.p0(i64 8, ptr %6) #4
  %15 = load ptr, ptr %3, align 8, !tbaa !4
  %16 = call i64 @luaL_optinteger(ptr noundef %15, i32 noundef 2, i64 noundef 1)
  %17 = load i64, ptr %4, align 8, !tbaa !13
  %18 = call i64 @u_posrelat(i64 noundef %16, i64 noundef %17)
  store i64 %18, ptr %6, align 8, !tbaa !11
  call void @llvm.lifetime.start.p0(i64 8, ptr %7) #4
  %19 = load ptr, ptr %3, align 8, !tbaa !4
  %20 = load i64, ptr %6, align 8, !tbaa !11
  %21 = call i64 @luaL_optinteger(ptr noundef %19, i32 noundef 3, i64 noundef %20)
  %22 = load i64, ptr %4, align 8, !tbaa !13
  %23 = call i64 @u_posrelat(i64 noundef %21, i64 noundef %22)
  store i64 %23, ptr %7, align 8, !tbaa !11
  call void @llvm.lifetime.start.p0(i64 4, ptr %8) #4
  %24 = load ptr, ptr %3, align 8, !tbaa !4
  %25 = call i32 @lua_toboolean(ptr noundef %24, i32 noundef 4)
  store i32 %25, ptr %8, align 4, !tbaa !16
  call void @llvm.lifetime.start.p0(i64 4, ptr %9) #4
  call void @llvm.lifetime.start.p0(i64 8, ptr %10) #4
  %26 = load i64, ptr %6, align 8, !tbaa !11
  %27 = icmp sge i64 %26, 1
  %28 = zext i1 %27 to i32
  %29 = icmp ne i32 %28, 0
  %30 = zext i1 %29 to i32
  %31 = sext i32 %30 to i64
  %32 = call i64 @llvm.expect.i64(i64 %31, i64 1)
  %33 = icmp ne i64 %32, 0
  br i1 %33, label %37, label %34

34:                                               ; preds = %1
  %35 = load ptr, ptr %3, align 8, !tbaa !4
  %36 = call i32 @luaL_argerror(ptr noundef %35, i32 noundef 2, ptr noundef @.str.9)
  br label %37

37:                                               ; preds = %34, %1
  %38 = load i64, ptr %7, align 8, !tbaa !11
  %39 = load i64, ptr %4, align 8, !tbaa !13
  %40 = icmp sle i64 %38, %39
  %41 = zext i1 %40 to i32
  %42 = icmp ne i32 %41, 0
  %43 = zext i1 %42 to i32
  %44 = sext i32 %43 to i64
  %45 = call i64 @llvm.expect.i64(i64 %44, i64 1)
  %46 = icmp ne i64 %45, 0
  br i1 %46, label %50, label %47

47:                                               ; preds = %37
  %48 = load ptr, ptr %3, align 8, !tbaa !4
  %49 = call i32 @luaL_argerror(ptr noundef %48, i32 noundef 3, ptr noundef @.str.9)
  br label %50

50:                                               ; preds = %47, %37
  %51 = load i64, ptr %6, align 8, !tbaa !11
  %52 = load i64, ptr %7, align 8, !tbaa !11
  %53 = icmp sgt i64 %51, %52
  br i1 %53, label %54, label %55

54:                                               ; preds = %50
  store i32 0, ptr %2, align 4
  store i32 1, ptr %11, align 4
  br label %105

55:                                               ; preds = %50
  %56 = load i64, ptr %7, align 8, !tbaa !11
  %57 = load i64, ptr %6, align 8, !tbaa !11
  %58 = sub nsw i64 %56, %57
  %59 = icmp sge i64 %58, 2147483647
  br i1 %59, label %60, label %63

60:                                               ; preds = %55
  %61 = load ptr, ptr %3, align 8, !tbaa !4
  %62 = call i32 (ptr, ptr, ...) @luaL_error(ptr noundef %61, ptr noundef @.str.10)
  store i32 %62, ptr %2, align 4
  store i32 1, ptr %11, align 4
  br label %105

63:                                               ; preds = %55
  %64 = load i64, ptr %7, align 8, !tbaa !11
  %65 = load i64, ptr %6, align 8, !tbaa !11
  %66 = sub nsw i64 %64, %65
  %67 = trunc i64 %66 to i32
  %68 = add nsw i32 %67, 1
  store i32 %68, ptr %9, align 4, !tbaa !16
  %69 = load ptr, ptr %3, align 8, !tbaa !4
  %70 = load i32, ptr %9, align 4, !tbaa !16
  call void @luaL_checkstack(ptr noundef %69, i32 noundef %70, ptr noundef @.str.10)
  store i32 0, ptr %9, align 4, !tbaa !16
  %71 = load ptr, ptr %5, align 8, !tbaa !9
  %72 = load i64, ptr %7, align 8, !tbaa !11
  %73 = getelementptr inbounds i8, ptr %71, i64 %72
  store ptr %73, ptr %10, align 8, !tbaa !9
  %74 = load i64, ptr %6, align 8, !tbaa !11
  %75 = sub nsw i64 %74, 1
  %76 = load ptr, ptr %5, align 8, !tbaa !9
  %77 = getelementptr inbounds i8, ptr %76, i64 %75
  store ptr %77, ptr %5, align 8, !tbaa !9
  br label %78

78:                                               ; preds = %102, %63
  %79 = load ptr, ptr %5, align 8, !tbaa !9
  %80 = load ptr, ptr %10, align 8, !tbaa !9
  %81 = icmp ult ptr %79, %80
  br i1 %81, label %82, label %103

82:                                               ; preds = %78
  call void @llvm.lifetime.start.p0(i64 4, ptr %12) #4
  %83 = load ptr, ptr %5, align 8, !tbaa !9
  %84 = load i32, ptr %8, align 4, !tbaa !16
  %85 = icmp ne i32 %84, 0
  %86 = xor i1 %85, true
  %87 = zext i1 %86 to i32
  %88 = call ptr @utf8_decode(ptr noundef %83, ptr noundef %12, i32 noundef %87)
  store ptr %88, ptr %5, align 8, !tbaa !9
  %89 = load ptr, ptr %5, align 8, !tbaa !9
  %90 = icmp eq ptr %89, null
  br i1 %90, label %91, label %94

91:                                               ; preds = %82
  %92 = load ptr, ptr %3, align 8, !tbaa !4
  %93 = call i32 (ptr, ptr, ...) @luaL_error(ptr noundef %92, ptr noundef @.str.11)
  store i32 %93, ptr %2, align 4
  store i32 1, ptr %11, align 4
  br label %100

94:                                               ; preds = %82
  %95 = load ptr, ptr %3, align 8, !tbaa !4
  %96 = load i32, ptr %12, align 4, !tbaa !16
  %97 = zext i32 %96 to i64
  call void @lua_pushinteger(ptr noundef %95, i64 noundef %97)
  %98 = load i32, ptr %9, align 4, !tbaa !16
  %99 = add nsw i32 %98, 1
  store i32 %99, ptr %9, align 4, !tbaa !16
  store i32 0, ptr %11, align 4
  br label %100

100:                                              ; preds = %94, %91
  call void @llvm.lifetime.end.p0(i64 4, ptr %12) #4
  %101 = load i32, ptr %11, align 4
  switch i32 %101, label %105 [
    i32 0, label %102
  ]

102:                                              ; preds = %100
  br label %78

103:                                              ; preds = %78
  %104 = load i32, ptr %9, align 4, !tbaa !16
  store i32 %104, ptr %2, align 4
  store i32 1, ptr %11, align 4
  br label %105

105:                                              ; preds = %103, %100, %60, %54
  call void @llvm.lifetime.end.p0(i64 8, ptr %10) #4
  call void @llvm.lifetime.end.p0(i64 4, ptr %9) #4
  call void @llvm.lifetime.end.p0(i64 4, ptr %8) #4
  call void @llvm.lifetime.end.p0(i64 8, ptr %7) #4
  call void @llvm.lifetime.end.p0(i64 8, ptr %6) #4
  call void @llvm.lifetime.end.p0(i64 8, ptr %5) #4
  call void @llvm.lifetime.end.p0(i64 8, ptr %4) #4
  %106 = load i32, ptr %2, align 4
  ret i32 %106
}