; Function Attrs: nounwind uwtable
define internal i32 @codepoint(ptr noundef %0) #0 {
  %2 = alloca i64, align 8
  call void @llvm.lifetime.start.p0(i64 8, ptr nonnull %2) #3
  %3 = call ptr @luaL_checklstring(ptr noundef %0, i32 noundef 1, ptr noundef nonnull %2) #3
  %4 = call i64 @luaL_optinteger(ptr noundef %0, i32 noundef 2, i64 noundef 1) #3
  %5 = load i64, ptr %2, align 8, !tbaa !4
  %6 = icmp sgt i64 %4, -1
  br i1 %6, label %u_posrelat.exit, label %7

7:                                                ; preds = %1
  %8 = sub i64 0, %4
  %9 = icmp ult i64 %5, %8
  br i1 %9, label %u_posrelat.exit, label %10

10:                                               ; preds = %7
  %11 = add nsw i64 %4, 1
  %12 = add i64 %11, %5
  br label %u_posrelat.exit

u_posrelat.exit:                                  ; preds = %1, %7, %10
  %.0.i = phi i64 [ %12, %10 ], [ %4, %1 ], [ 0, %7 ]
  %13 = call i64 @luaL_optinteger(ptr noundef %0, i32 noundef 3, i64 noundef %.0.i) #3
  %14 = load i64, ptr %2, align 8, !tbaa !4
  %15 = icmp sgt i64 %13, -1
  br i1 %15, label %u_posrelat.exit42, label %16

16:                                               ; preds = %u_posrelat.exit
  %17 = sub i64 0, %13
  %18 = icmp ult i64 %14, %17
  br i1 %18, label %u_posrelat.exit42, label %19

19:                                               ; preds = %16
  %20 = add nsw i64 %13, 1
  %21 = add i64 %20, %14
  br label %u_posrelat.exit42

u_posrelat.exit42:                                ; preds = %u_posrelat.exit, %16, %19
  %.0.i41 = phi i64 [ %21, %19 ], [ %13, %u_posrelat.exit ], [ 0, %16 ]
  %22 = call i32 @lua_toboolean(ptr noundef %0, i32 noundef 4) #3
  %23 = icmp sgt i64 %.0.i, 0
  br i1 %23, label %26, label %24, !prof !10

24:                                               ; preds = %u_posrelat.exit42
  %25 = call i32 @luaL_argerror(ptr noundef %0, i32 noundef 2, ptr noundef nonnull @.str.9) #3
  br label %26

26:                                               ; preds = %24, %u_posrelat.exit42
  %27 = load i64, ptr %2, align 8, !tbaa !4
  %.not = icmp sgt i64 %.0.i41, %27
  br i1 %.not, label %28, label %30, !prof !11

28:                                               ; preds = %26
  %29 = call i32 @luaL_argerror(ptr noundef %0, i32 noundef 3, ptr noundef nonnull @.str.9) #3
  br label %30

30:                                               ; preds = %28, %26
  %31 = icmp sgt i64 %.0.i, %.0.i41
  br i1 %31, label %.loopexit, label %32

32:                                               ; preds = %30
  %33 = sub nsw i64 %.0.i41, %.0.i
  %34 = icmp sgt i64 %33, 2147483646
  br i1 %34, label %.loopexit.sink.split, label %35

35:                                               ; preds = %32
  %36 = trunc i64 %33 to i32
  %37 = add nsw i32 %36, 1
  call void @luaL_checkstack(ptr noundef %0, i32 noundef %37, ptr noundef nonnull @.str.10) #3
  %38 = getelementptr inbounds i8, ptr %3, i64 %.0.i41
  %39 = getelementptr i8, ptr %3, i64 %.0.i
  %40 = getelementptr i8, ptr %39, i64 -1
  %41 = icmp ult ptr %40, %38
  br i1 %41, label %.lr.ph, label %.loopexit

.lr.ph:                                           ; preds = %35
  %.fr = freeze i32 %22
  %.not39.not = icmp eq i32 %.fr, 0
  br i1 %.not39.not, label %.lr.ph.split.us, label %.lr.ph.split

.lr.ph.split.us:                                  ; preds = %.lr.ph, %71
  %.03364.us = phi i32 [ %74, %71 ], [ 0, %.lr.ph ]
  %.03563.us = phi ptr [ %72, %71 ], [ %40, %.lr.ph ]
  %42 = load i8, ptr %.03563.us, align 1, !tbaa !9
  %43 = zext i8 %42 to i32
  %44 = icmp sgt i8 %42, -1
  br i1 %44, label %68, label %.preheader.i.us

.preheader.i.us:                                  ; preds = %.lr.ph.split.us
  %45 = and i32 %43, 64
  %.not58.i.us = icmp eq i32 %45, 0
  br i1 %.not58.i.us, label %._crit_edge.i.us, label %.lr.ph.i.us

.lr.ph.i.us:                                      ; preds = %.preheader.i.us, %51
  %indvars.iv.i.us = phi i64 [ %indvars.iv.next.i.us, %51 ], [ 0, %.preheader.i.us ]
  %.13760.i.us = phi i32 [ %54, %51 ], [ 0, %.preheader.i.us ]
  %.04059.i.us = phi i32 [ %55, %51 ], [ %43, %.preheader.i.us ]
  %indvars.iv.next.i.us = add nuw nsw i64 %indvars.iv.i.us, 1
  %46 = getelementptr inbounds nuw i8, ptr %.03563.us, i64 %indvars.iv.next.i.us
  %47 = load i8, ptr %46, align 1, !tbaa !9
  %48 = zext i8 %47 to i32
  %49 = and i32 %48, 192
  %50 = icmp eq i32 %49, 128
  br i1 %50, label %51, label %.loopexit.sink.split

51:                                               ; preds = %.lr.ph.i.us
  %52 = shl i32 %.13760.i.us, 6
  %53 = and i32 %48, 63
  %54 = or disjoint i32 %53, %52
  %55 = shl i32 %.04059.i.us, 1
  %56 = and i32 %.04059.i.us, 32
  %.not.i.us = icmp eq i32 %56, 0
  br i1 %.not.i.us, label %._crit_edge.loopexit.i.us, label %.lr.ph.i.us

._crit_edge.loopexit.i.us:                        ; preds = %51
  %57 = trunc nuw nsw i64 %indvars.iv.next.i.us to i32
  br label %._crit_edge.i.us

._crit_edge.i.us:                                 ; preds = %._crit_edge.loopexit.i.us, %.preheader.i.us
  %.040.lcssa.i.us = phi i32 [ %43, %.preheader.i.us ], [ %55, %._crit_edge.loopexit.i.us ]
  %.137.lcssa.i.us = phi i32 [ 0, %.preheader.i.us ], [ %54, %._crit_edge.loopexit.i.us ]
  %.035.lcssa.i.us = phi i32 [ 0, %.preheader.i.us ], [ %57, %._crit_edge.loopexit.i.us ]
  %58 = and i32 %.040.lcssa.i.us, 63
  %59 = mul nuw nsw i32 %.035.lcssa.i.us, 5
  %60 = shl i32 %58, %59
  %61 = or i32 %60, %.137.lcssa.i.us
  %62 = icmp samesign ugt i32 %.035.lcssa.i.us, 5
  %63 = icmp slt i32 %61, 0
  %or.cond.i.us = select i1 %62, i1 true, i1 %63
  br i1 %or.cond.i.us, label %.loopexit.sink.split, label %64

64:                                               ; preds = %._crit_edge.i.us
  %65 = zext nneg i32 %.035.lcssa.i.us to i64
  %66 = getelementptr inbounds nuw [6 x i32], ptr @utf8_decode.limits, i64 0, i64 %65
  %67 = load i32, ptr %66, align 4, !tbaa !12
  %.not54.i.us = icmp ult i32 %61, %67
  %spec.select.idx.i.us = select i1 %.not54.i.us, i64 0, i64 %65
  %spec.select.i.us = getelementptr inbounds nuw i8, ptr %.03563.us, i64 %spec.select.idx.i.us
  br i1 %.not54.i.us, label %.loopexit.sink.split, label %68

68:                                               ; preds = %64, %.lr.ph.split.us
  %.041.i.us = phi ptr [ %spec.select.i.us, %64 ], [ %.03563.us, %.lr.ph.split.us ]
  %.036.i.us = phi i32 [ %61, %64 ], [ %43, %.lr.ph.split.us ]
  %69 = icmp samesign ugt i32 %.036.i.us, 1114111
  %70 = and i32 %.036.i.us, 2095104
  %or.cond4.i.us = icmp eq i32 %70, 55296
  %or.cond49.i.us = or i1 %69, %or.cond4.i.us
  br i1 %or.cond49.i.us, label %.loopexit.sink.split, label %71

71:                                               ; preds = %68
  %72 = getelementptr inbounds nuw i8, ptr %.041.i.us, i64 1
  %73 = zext nneg i32 %.036.i.us to i64
  call void @lua_pushinteger(ptr noundef %0, i64 noundef %73) #3
  %74 = add nuw nsw i32 %.03364.us, 1
  %75 = icmp ult ptr %72, %38
  br i1 %75, label %.lr.ph.split.us, label %.loopexit

.lr.ph.split:                                     ; preds = %.lr.ph, %102
  %.03364 = phi i32 [ %105, %102 ], [ 0, %.lr.ph ]
  %.03563 = phi ptr [ %103, %102 ], [ %40, %.lr.ph ]
  %76 = load i8, ptr %.03563, align 1, !tbaa !9
  %77 = zext i8 %76 to i32
  %78 = icmp sgt i8 %76, -1
  br i1 %78, label %102, label %.preheader.i

.preheader.i:                                     ; preds = %.lr.ph.split
  %79 = and i32 %77, 64
  %.not58.i = icmp eq i32 %79, 0
  br i1 %.not58.i, label %._crit_edge.i, label %.lr.ph.i

.lr.ph.i:                                         ; preds = %.preheader.i, %85
  %indvars.iv.i = phi i64 [ %indvars.iv.next.i, %85 ], [ 0, %.preheader.i ]
  %.13760.i = phi i32 [ %88, %85 ], [ 0, %.preheader.i ]
  %.04059.i = phi i32 [ %89, %85 ], [ %77, %.preheader.i ]
  %indvars.iv.next.i = add nuw nsw i64 %indvars.iv.i, 1
  %80 = getelementptr inbounds nuw i8, ptr %.03563, i64 %indvars.iv.next.i
  %81 = load i8, ptr %80, align 1, !tbaa !9
  %82 = zext i8 %81 to i32
  %83 = and i32 %82, 192
  %84 = icmp eq i32 %83, 128
  br i1 %84, label %85, label %.loopexit.sink.split

85:                                               ; preds = %.lr.ph.i
  %86 = shl i32 %.13760.i, 6
  %87 = and i32 %82, 63
  %88 = or disjoint i32 %87, %86
  %89 = shl i32 %.04059.i, 1
  %90 = and i32 %.04059.i, 32
  %.not.i = icmp eq i32 %90, 0
  br i1 %.not.i, label %._crit_edge.loopexit.i, label %.lr.ph.i

._crit_edge.loopexit.i:                           ; preds = %85
  %91 = trunc nuw nsw i64 %indvars.iv.next.i to i32
  br label %._crit_edge.i

._crit_edge.i:                                    ; preds = %._crit_edge.loopexit.i, %.preheader.i
  %.040.lcssa.i = phi i32 [ %77, %.preheader.i ], [ %89, %._crit_edge.loopexit.i ]
  %.137.lcssa.i = phi i32 [ 0, %.preheader.i ], [ %88, %._crit_edge.loopexit.i ]
  %.035.lcssa.i = phi i32 [ 0, %.preheader.i ], [ %91, %._crit_edge.loopexit.i ]
  %92 = and i32 %.040.lcssa.i, 63
  %93 = mul nuw nsw i32 %.035.lcssa.i, 5
  %94 = shl i32 %92, %93
  %95 = or i32 %94, %.137.lcssa.i
  %96 = icmp samesign ugt i32 %.035.lcssa.i, 5
  %97 = icmp slt i32 %95, 0
  %or.cond.i = select i1 %96, i1 true, i1 %97
  br i1 %or.cond.i, label %.loopexit.sink.split, label %98

98:                                               ; preds = %._crit_edge.i
  %99 = zext nneg i32 %.035.lcssa.i to i64
  %100 = getelementptr inbounds nuw [6 x i32], ptr @utf8_decode.limits, i64 0, i64 %99
  %101 = load i32, ptr %100, align 4, !tbaa !12
  %.not54.i = icmp ult i32 %95, %101
  %spec.select.idx.i = select i1 %.not54.i, i64 0, i64 %99
  %spec.select.i = getelementptr inbounds nuw i8, ptr %.03563, i64 %spec.select.idx.i
  br i1 %.not54.i, label %.loopexit.sink.split, label %102

102:                                              ; preds = %98, %.lr.ph.split
  %.041.i = phi ptr [ %spec.select.i, %98 ], [ %.03563, %.lr.ph.split ]
  %.036.i = phi i32 [ %95, %98 ], [ %77, %.lr.ph.split ]
  %103 = getelementptr inbounds nuw i8, ptr %.041.i, i64 1
  %104 = zext nneg i32 %.036.i to i64
  call void @lua_pushinteger(ptr noundef %0, i64 noundef %104) #3
  %105 = add nuw nsw i32 %.03364, 1
  %106 = icmp ult ptr %103, %38
  br i1 %106, label %.lr.ph.split, label %.loopexit

.loopexit.sink.split:                             ; preds = %._crit_edge.i, %98, %.lr.ph.i, %._crit_edge.i.us, %64, %68, %.lr.ph.i.us, %32
  %.str.11.sink = phi ptr [ @.str.10, %32 ], [ @.str.11, %.lr.ph.i.us ], [ @.str.11, %68 ], [ @.str.11, %64 ], [ @.str.11, %._crit_edge.i.us ], [ @.str.11, %.lr.ph.i ], [ @.str.11, %98 ], [ @.str.11, %._crit_edge.i ]
  %107 = call i32 (ptr, ptr, ...) @luaL_error(ptr noundef %0, ptr noundef nonnull %.str.11.sink) #3
  br label %.loopexit

.loopexit:                                        ; preds = %102, %71, %.loopexit.sink.split, %35, %30
  %.032 = phi i32 [ 0, %30 ], [ 0, %35 ], [ %107, %.loopexit.sink.split ], [ %74, %71 ], [ %105, %102 ]
  call void @llvm.lifetime.end.p0(i64 8, ptr nonnull %2) #3
  ret i32 %.032
}